; Function Attrs: mustprogress nofree norecurse nosync nounwind willreturn memory(readwrite, inaccessiblemem: none) uwtable
define hidden void @_ZN9Assembler6kmovwlE9KRegisterS0_(ptr noundef nonnull align 8 dereferenceable(40) %0, i32 %1, i32 %2) local_unnamed_addr #8 align 2 {
  %4 = alloca %class.InstructionAttr, align 8
  store <8 x i8> <i8 0, i8 1, i8 1, i8 0, i8 0, i8 0, i8 1, i8 0>, ptr %4, align 8
  %5 = getelementptr inbounds i8, ptr %4, i64 8
  store <4 x i32> <i32 0, i32 24, i32 4, i32 0>, ptr %5, align 8
  %6 = getelementptr inbounds i8, ptr %4, i64 24
  store i32 0, ptr %6, align 8
  %7 = getelementptr inbounds i8, ptr %4, i64 32
  store ptr null, ptr %7, align 8
  %8 = sext i32 %1 to i64
  %9 = getelementptr inbounds %"class.KRegister::KRegisterImpl", ptr getelementptr inbounds (i8, ptr @all_KRegisterImpls, i64 1), i64 %8
  %10 = ptrtoint ptr %9 to i64
  %11 = trunc i64 %10 to i32
  %12 = sub i32 %11, ptrtoint (ptr getelementptr inbounds (i8, ptr @all_KRegisterImpls, i64 1) to i32)
  %13 = sext i32 %2 to i64
  %14 = getelementptr inbounds %"class.KRegister::KRegisterImpl", ptr getelementptr inbounds (i8, ptr @all_KRegisterImpls, i64 1), i64 %13
  %15 = ptrtoint ptr %14 to i64
  %16 = trunc i64 %15 to i32
  %17 = sub i32 %16, ptrtoint (ptr getelementptr inbounds (i8, ptr @all_KRegisterImpls, i64 1) to i32)
  %18 = call noundef i32 @_ZN9Assembler21vex_prefix_and_encodeEiiiNS_13VexSimdPrefixENS_9VexOpcodeEP15InstructionAttrb(ptr noundef nonnull align 8 dereferenceable(40) %0, i32 noundef %12, i32 noundef 0, i32 noundef %17, i32 noundef 0, i32 noundef 1, ptr noundef nonnull %4, i1 noundef zeroext false)
  %19 = getelementptr inbounds i8, ptr %0, i64 8
  %20 = load ptr, ptr %19, align 8
  %21 = trunc nuw nsw i32 %18 to i8
  %.0.i2.i = or disjoint i8 %21, -64
  %22 = getelementptr inbounds i8, ptr %20, i64 16
  %23 = load ptr, ptr %22, align 8
  %24 = getelementptr inbounds i8, ptr %23, i64 1
  store i8 -112, ptr %23, align 1
  %25 = getelementptr inbounds i8, ptr %23, i64 2
  store i8 %.0.i2.i, ptr %24, align 1
  store ptr %25, ptr %22, align 8
  %26 = load ptr, ptr %7, align 8
  %.not.i = icmp eq ptr %26, null
  br i1 %.not.i, label %_ZN15InstructionAttrD2Ev.exit, label %27

27:                                               ; preds = %3
  %28 = getelementptr inbounds i8, ptr %26, i64 32
  store ptr null, ptr %28, align 8
  br label %_ZN15InstructionAttrD2Ev.exit

_ZN15InstructionAttrD2Ev.exit:                    ; preds = %3, %27
  ret void
}